; Function Attrs: nounwind uwtable
define ptr @l_Lean_withoutModifyingEnv_x27___rarg(ptr noundef %0, ptr noundef %1, ptr noundef %2, ptr readnone captures(none) %3, ptr noundef %4) #0 {
  %6 = getelementptr inbounds nuw i8, ptr %0, i64 16
  %7 = load ptr, ptr %6, align 8, !tbaa !10
  %8 = ptrtoint ptr %7 to i64
  %9 = and i64 %8, 1
  %.not = icmp eq i64 %9, 0
  br i1 %.not, label %10, label %lean_inc.exit24

10:                                               ; preds = %5
  %.val.i = load i32, ptr %7, align 4, !tbaa !4
  %11 = icmp sgt i32 %.val.i, 0
  br i1 %11, label %12, label %14, !prof !9

12:                                               ; preds = %10
  %13 = add nuw i32 %.val.i, 1
  store i32 %13, ptr %7, align 4, !tbaa !4
  br label %lean_inc.exit24

14:                                               ; preds = %10
  %.not.i = icmp eq i32 %.val.i, 0
  br i1 %.not.i, label %lean_inc.exit24, label %15

15:                                               ; preds = %14
  tail call void @lean_inc_ref_cold(ptr noundef nonnull %7) #4
  br label %lean_inc.exit24

lean_inc.exit24:                                  ; preds = %15, %14, %12, %5
  %16 = getelementptr inbounds nuw i8, ptr %1, i64 8
  %17 = load ptr, ptr %16, align 8, !tbaa !10
  %18 = ptrtoint ptr %17 to i64
  %19 = and i64 %18, 1
  %.not39 = icmp eq i64 %19, 0
  br i1 %.not39, label %20, label %lean_inc.exit22

20:                                               ; preds = %lean_inc.exit24
  %.val.i25 = load i32, ptr %17, align 4, !tbaa !4
  %21 = icmp sgt i32 %.val.i25, 0
  br i1 %21, label %22, label %24, !prof !9

22:                                               ; preds = %20
  %23 = add nuw i32 %.val.i25, 1
  store i32 %23, ptr %17, align 4, !tbaa !4
  br label %26

24:                                               ; preds = %20
  %.not.i26 = icmp eq i32 %.val.i25, 0
  br i1 %.not.i26, label %lean_inc.exit22, label %25

25:                                               ; preds = %24
  tail call void @lean_inc_ref_cold(ptr noundef nonnull %17) #4
  %.val.i28.pr = load i32, ptr %17, align 4, !tbaa !4
  br label %26

26:                                               ; preds = %25, %22
  %.val.i28 = phi i32 [ %.val.i28.pr, %25 ], [ %23, %22 ]
  %27 = icmp sgt i32 %.val.i28, 0
  br i1 %27, label %28, label %30, !prof !15

28:                                               ; preds = %26
  %29 = add nuw i32 %.val.i28, 1
  store i32 %29, ptr %17, align 4, !tbaa !4
  br label %lean_inc.exit22

30:                                               ; preds = %26
  %.not.i29 = icmp eq i32 %.val.i28, 0
  br i1 %.not.i29, label %lean_inc.exit22, label %31

31:                                               ; preds = %30
  tail call void @lean_inc_ref_cold(ptr noundef nonnull %17) #4
  br label %lean_inc.exit22

lean_inc.exit22:                                  ; preds = %24, %31, %30, %28, %lean_inc.exit24
  br i1 %.not, label %32, label %lean_inc.exit

32:                                               ; preds = %lean_inc.exit22
  %.val.i31 = load i32, ptr %7, align 4, !tbaa !4
  %33 = icmp sgt i32 %.val.i31, 0
  br i1 %33, label %34, label %36, !prof !9

34:                                               ; preds = %32
  %35 = add nuw i32 %.val.i31, 1
  store i32 %35, ptr %7, align 4, !tbaa !4
  br label %lean_inc.exit

36:                                               ; preds = %32
  %.not.i32 = icmp eq i32 %.val.i31, 0
  br i1 %.not.i32, label %lean_inc.exit, label %37

37:                                               ; preds = %36
  tail call void @lean_inc_ref_cold(ptr noundef nonnull %7) #4
  br label %lean_inc.exit

lean_inc.exit:                                    ; preds = %37, %36, %34, %lean_inc.exit22
  tail call void @lean_inc_heartbeat() #4
  %38 = tail call noalias ptr @mi_malloc_small(i64 noundef 72) #4
  %39 = icmp eq ptr %38, null
  br i1 %39, label %40, label %lean_alloc_closure.exit

40:                                               ; preds = %lean_inc.exit
  tail call void @lean_internal_panic_out_of_memory() #5
  unreachable

lean_alloc_closure.exit:                          ; preds = %lean_inc.exit
  %41 = getelementptr inbounds nuw i8, ptr %38, i64 4
  store i32 1, ptr %38, align 4, !tbaa !4
  store i32 -184549304, ptr %41, align 4
  %42 = getelementptr inbounds nuw i8, ptr %38, i64 8
  store ptr @l_Lean_withoutModifyingEnv_x27___rarg___lambda__4, ptr %42, align 8, !tbaa !10
  %43 = getelementptr inbounds nuw i8, ptr %38, i64 16
  store i16 7, ptr %43, align 8, !tbaa !12
  %44 = getelementptr inbounds nuw i8, ptr %38, i64 18
  store i16 6, ptr %44, align 2, !tbaa !12
  %45 = getelementptr inbounds nuw i8, ptr %38, i64 24
  store ptr %0, ptr %45, align 8, !tbaa !10
  %46 = getelementptr inbounds nuw i8, ptr %38, i64 32
  store ptr %7, ptr %46, align 8, !tbaa !10
  %47 = getelementptr inbounds nuw i8, ptr %38, i64 40
  store ptr %17, ptr %47, align 8, !tbaa !10
  %48 = getelementptr inbounds nuw i8, ptr %38, i64 48
  store ptr %4, ptr %48, align 8, !tbaa !10
  %49 = getelementptr inbounds nuw i8, ptr %38, i64 56
  store ptr %1, ptr %49, align 8, !tbaa !10
  %50 = getelementptr inbounds nuw i8, ptr %38, i64 64
  store ptr %2, ptr %50, align 8, !tbaa !10
  %51 = tail call ptr @lean_apply_4(ptr noundef %7, ptr noundef nonnull inttoptr (i64 1 to ptr), ptr noundef nonnull inttoptr (i64 1 to ptr), ptr noundef %17, ptr noundef nonnull %38) #4
  ret ptr %51
}